target datalayout = "e-m:e-p270:32:32-p271:32:32-p272:64:64-i64:64-i128:128-f80:128-n8:16:32:64-S128"
target triple = "x86_64-pc-linux-gnu"

%struct.AVFilterContext = type { ptr, ptr, ptr, ptr, ptr, i32, ptr, ptr, i32, ptr, ptr, i32, i32, ptr, ptr, ptr, ptr, i32, ptr, i32, i32 }
%struct.XFadeContext = type { ptr, i32, i64, i64, ptr, i32, i32, i32, i64, i64, i64, i64, i32, [2 x i32], [2 x ptr], i32, [4 x i16], [4 x i16], ptr, ptr }
%struct.AVRational = type { i32, i32 }
%struct.AVFrame = type { [8 x ptr], [8 x i32], ptr, i32, i32, i32, i32, i32, %struct.AVRational, i64, i64, %struct.AVRational, i32, ptr, i32, i32, [8 x ptr], ptr, i32, ptr, i32, i32, i32, i32, i32, i32, i32, i64, ptr, i32, ptr, ptr, i64, i64, i64, i64, ptr, %struct.AVChannelLayout, i64 }
%struct.AVChannelLayout = type { i32, i32, %union.anon.1, ptr }
%union.anon.1 = type { i64 }

; Function Attrs: nounwind uwtable
define internal void @custom8_transition(ptr noundef %0, ptr noundef %1, ptr noundef %2, ptr noundef %3, float noundef %4, i32 noundef %5, i32 noundef %6, i32 noundef %7) #1 {
  %9 = alloca ptr, align 8
  %10 = alloca ptr, align 8
  %11 = alloca ptr, align 8
  %12 = alloca ptr, align 8
  %13 = alloca float, align 4
  %14 = alloca i32, align 4
  %15 = alloca i32, align 4
  %16 = alloca i32, align 4
  %17 = alloca ptr, align 8
  %18 = alloca i32, align 4
  %19 = alloca i32, align 4
  %20 = alloca [8 x double], align 16
  %21 = alloca i32, align 4
  %22 = alloca i32, align 4
  %23 = alloca ptr, align 8
  %24 = alloca ptr, align 8
  %25 = alloca ptr, align 8
  %26 = alloca i32, align 4
  %27 = alloca i32, align 4
  store ptr %0, ptr %9, align 8, !tbaa !4
  store ptr %1, ptr %10, align 8, !tbaa !36
  store ptr %2, ptr %11, align 8, !tbaa !36
  store ptr %3, ptr %12, align 8, !tbaa !36
  store float %4, ptr %13, align 4, !tbaa !90
  store i32 %5, ptr %14, align 4, !tbaa !32
  store i32 %6, ptr %15, align 4, !tbaa !32
  store i32 %7, ptr %16, align 4, !tbaa !32
  call void @llvm.lifetime.start.p0(i64 8, ptr %17) #10
  %28 = load ptr, ptr %9, align 8, !tbaa !4
  %29 = getelementptr inbounds nuw %struct.AVFilterContext, ptr %28, i32 0, i32 9
  %30 = load ptr, ptr %29, align 8, !tbaa !9
  store ptr %30, ptr %17, align 8, !tbaa !22
  call void @llvm.lifetime.start.p0(i64 4, ptr %18) #10
  %31 = load i32, ptr %15, align 4, !tbaa !32
  %32 = load i32, ptr %14, align 4, !tbaa !32
  %33 = sub nsw i32 %31, %32
  store i32 %33, ptr %18, align 4, !tbaa !32
  call void @llvm.lifetime.start.p0(i64 4, ptr %19) #10
  %34 = load ptr, ptr %12, align 8, !tbaa !36
  %35 = getelementptr inbounds nuw %struct.AVFrame, ptr %34, i32 0, i32 3
  %36 = load i32, ptr %35, align 8, !tbaa !92
  store i32 %36, ptr %19, align 4, !tbaa !32
  call void @llvm.lifetime.start.p0(i64 64, ptr %20) #10
  %37 = load i32, ptr %19, align 4, !tbaa !32
  %38 = sitofp i32 %37 to double
  %39 = getelementptr inbounds [8 x double], ptr %20, i64 0, i64 2
  store double %38, ptr %39, align 16, !tbaa !93
  %40 = load ptr, ptr %12, align 8, !tbaa !36
  %41 = getelementptr inbounds nuw %struct.AVFrame, ptr %40, i32 0, i32 4
  %42 = load i32, ptr %41, align 4, !tbaa !95
  %43 = sitofp i32 %42 to double
  %44 = getelementptr inbounds [8 x double], ptr %20, i64 0, i64 3
  store double %43, ptr %44, align 8, !tbaa !93
  %45 = load float, ptr %13, align 4, !tbaa !90
  %46 = fpext nsz float %45 to double
  %47 = getelementptr inbounds [8 x double], ptr %20, i64 0, i64 7
  store double %46, ptr %47, align 8, !tbaa !93
  call void @llvm.lifetime.start.p0(i64 4, ptr %21) #10
  store i32 0, ptr %21, align 4, !tbaa !32
  br label %48

48:                                               ; preds = %190, %8
  %49 = load i32, ptr %21, align 4, !tbaa !32
  %50 = load ptr, ptr %17, align 8, !tbaa !22
  %51 = getelementptr inbounds nuw %struct.XFadeContext, ptr %50, i32 0, i32 5
  %52 = load i32, ptr %51, align 8, !tbaa !82
  %53 = icmp slt i32 %49, %52
  br i1 %53, label %55, label %54

54:                                               ; preds = %48
  store i32 2, ptr %22, align 4
  call void @llvm.lifetime.end.p0(i64 4, ptr %21) #10
  br label %193

55:                                               ; preds = %48
  call void @llvm.lifetime.start.p0(i64 8, ptr %23) #10
  %56 = load ptr, ptr %10, align 8, !tbaa !36
  %57 = getelementptr inbounds nuw %struct.AVFrame, ptr %56, i32 0, i32 0
  %58 = load i32, ptr %21, align 4, !tbaa !32
  %59 = sext i32 %58 to i64
  %60 = getelementptr inbounds [8 x ptr], ptr %57, i64 0, i64 %59
  %61 = load ptr, ptr %60, align 8, !tbaa !96
  %62 = load i32, ptr %14, align 4, !tbaa !32
  %63 = load ptr, ptr %10, align 8, !tbaa !36
  %64 = getelementptr inbounds nuw %struct.AVFrame, ptr %63, i32 0, i32 1
  %65 = load i32, ptr %21, align 4, !tbaa !32
  %66 = sext i32 %65 to i64
  %67 = getelementptr inbounds [8 x i32], ptr %64, i64 0, i64 %66
  %68 = load i32, ptr %67, align 4, !tbaa !32
  %69 = mul nsw i32 %62, %68
  %70 = sext i32 %69 to i64
  %71 = getelementptr inbounds i8, ptr %61, i64 %70
  store ptr %71, ptr %23, align 8, !tbaa !96
  call void @llvm.lifetime.start.p0(i64 8, ptr %24) #10
  %72 = load ptr, ptr %11, align 8, !tbaa !36
  %73 = getelementptr inbounds nuw %struct.AVFrame, ptr %72, i32 0, i32 0
  %74 = load i32, ptr %21, align 4, !tbaa !32
  %75 = sext i32 %74 to i64
  %76 = getelementptr inbounds [8 x ptr], ptr %73, i64 0, i64 %75
  %77 = load ptr, ptr %76, align 8, !tbaa !96
  %78 = load i32, ptr %14, align 4, !tbaa !32
  %79 = load ptr, ptr %11, align 8, !tbaa !36
  %80 = getelementptr inbounds nuw %struct.AVFrame, ptr %79, i32 0, i32 1
  %81 = load i32, ptr %21, align 4, !tbaa !32
  %82 = sext i32 %81 to i64
  %83 = getelementptr inbounds [8 x i32], ptr %80, i64 0, i64 %82
  %84 = load i32, ptr %83, align 4, !tbaa !32
  %85 = mul nsw i32 %78, %84
  %86 = sext i32 %85 to i64
  %87 = getelementptr inbounds i8, ptr %77, i64 %86
  store ptr %87, ptr %24, align 8, !tbaa !96
  call void @llvm.lifetime.start.p0(i64 8, ptr %25) #10
  %88 = load ptr, ptr %12, align 8, !tbaa !36
  %89 = getelementptr inbounds nuw %struct.AVFrame, ptr %88, i32 0, i32 0
  %90 = load i32, ptr %21, align 4, !tbaa !32
  %91 = sext i32 %90 to i64
  %92 = getelementptr inbounds [8 x ptr], ptr %89, i64 0, i64 %91
  %93 = load ptr, ptr %92, align 8, !tbaa !96
  %94 = load i32, ptr %14, align 4, !tbaa !32
  %95 = load ptr, ptr %12, align 8, !tbaa !36
  %96 = getelementptr inbounds nuw %struct.AVFrame, ptr %95, i32 0, i32 1
  %97 = load i32, ptr %21, align 4, !tbaa !32
  %98 = sext i32 %97 to i64
  %99 = getelementptr inbounds [8 x i32], ptr %96, i64 0, i64 %98
  %100 = load i32, ptr %99, align 4, !tbaa !32
  %101 = mul nsw i32 %94, %100
  %102 = sext i32 %101 to i64
  %103 = getelementptr inbounds i8, ptr %93, i64 %102
  store ptr %103, ptr %25, align 8, !tbaa !96
  %104 = load i32, ptr %21, align 4, !tbaa !32
  %105 = sitofp i32 %104 to double
  %106 = getelementptr inbounds [8 x double], ptr %20, i64 0, i64 6
  store double %105, ptr %106, align 16, !tbaa !93
  call void @llvm.lifetime.start.p0(i64 4, ptr %26) #10
  store i32 0, ptr %26, align 4, !tbaa !32
  br label %107

107:                                              ; preds = %186, %55
  %108 = load i32, ptr %26, align 4, !tbaa !32
  %109 = load i32, ptr %18, align 4, !tbaa !32
  %110 = icmp slt i32 %108, %109
  br i1 %110, label %112, label %111

111:                                              ; preds = %107
  store i32 5, ptr %22, align 4
  call void @llvm.lifetime.end.p0(i64 4, ptr %26) #10
  br label %189

112:                                              ; preds = %107
  %113 = load i32, ptr %14, align 4, !tbaa !32
  %114 = load i32, ptr %26, align 4, !tbaa !32
  %115 = add nsw i32 %113, %114
  %116 = sitofp i32 %115 to double
  %117 = getelementptr inbounds [8 x double], ptr %20, i64 0, i64 1
  store double %116, ptr %117, align 8, !tbaa !93
  call void @llvm.lifetime.start.p0(i64 4, ptr %27) #10
  store i32 0, ptr %27, align 4, !tbaa !32
  br label %118

118:                                              ; preds = %152, %112
  %119 = load i32, ptr %27, align 4, !tbaa !32
  %120 = load i32, ptr %19, align 4, !tbaa !32
  %121 = icmp slt i32 %119, %120
  br i1 %121, label %123, label %122

122:                                              ; preds = %118
  store i32 8, ptr %22, align 4
  call void @llvm.lifetime.end.p0(i64 4, ptr %27) #10
  br label %155

123:                                              ; preds = %118
  %124 = load i32, ptr %27, align 4, !tbaa !32
  %125 = sitofp i32 %124 to double
  %126 = getelementptr inbounds [8 x double], ptr %20, i64 0, i64 0
  store double %125, ptr %126, align 16, !tbaa !93
  %127 = load ptr, ptr %23, align 8, !tbaa !96
  %128 = load i32, ptr %27, align 4, !tbaa !32
  %129 = sext i32 %128 to i64
  %130 = getelementptr inbounds i8, ptr %127, i64 %129
  %131 = load i8, ptr %130, align 1, !tbaa !97
  %132 = uitofp i8 %131 to double
  %133 = getelementptr inbounds [8 x double], ptr %20, i64 0, i64 4
  store double %132, ptr %133, align 16, !tbaa !93
  %134 = load ptr, ptr %24, align 8, !tbaa !96
  %135 = load i32, ptr %27, align 4, !tbaa !32
  %136 = sext i32 %135 to i64
  %137 = getelementptr inbounds i8, ptr %134, i64 %136
  %138 = load i8, ptr %137, align 1, !tbaa !97
  %139 = uitofp i8 %138 to double
  %140 = getelementptr inbounds [8 x double], ptr %20, i64 0, i64 5
  store double %139, ptr %140, align 8, !tbaa !93
  %141 = load ptr, ptr %17, align 8, !tbaa !22
  %142 = getelementptr inbounds nuw %struct.XFadeContext, ptr %141, i32 0, i32 19
  %143 = load ptr, ptr %142, align 8, !tbaa !24
  %144 = getelementptr inbounds [8 x double], ptr %20, i64 0, i64 0
  %145 = load ptr, ptr %17, align 8, !tbaa !22
  %146 = call nsz double @av_expr_eval(ptr noundef %143, ptr noundef %144, ptr noundef %145)
  %147 = fptoui double %146 to i8
  %148 = load ptr, ptr %25, align 8, !tbaa !96
  %149 = load i32, ptr %27, align 4, !tbaa !32
  %150 = sext i32 %149 to i64
  %151 = getelementptr inbounds i8, ptr %148, i64 %150
  store i8 %147, ptr %151, align 1, !tbaa !97
  br label %152

152:                                              ; preds = %123
  %153 = load i32, ptr %27, align 4, !tbaa !32
  %154 = add nsw i32 %153, 1
  store i32 %154, ptr %27, align 4, !tbaa !32
  br label %118, !llvm.loop !98

155:                                              ; preds = %122
  %156 = load ptr, ptr %12, align 8, !tbaa !36
  %157 = getelementptr inbounds nuw %struct.AVFrame, ptr %156, i32 0, i32 1
  %158 = load i32, ptr %21, align 4, !tbaa !32
  %159 = sext i32 %158 to i64
  %160 = getelementptr inbounds [8 x i32], ptr %157, i64 0, i64 %159
  %161 = load i32, ptr %160, align 4, !tbaa !32
  %162 = sdiv i32 %161, 1
  %163 = load ptr, ptr %25, align 8, !tbaa !96
  %164 = sext i32 %162 to i64
  %165 = getelementptr inbounds i8, ptr %163, i64 %164
  store ptr %165, ptr %25, align 8, !tbaa !96
  %166 = load ptr, ptr %10, align 8, !tbaa !36
  %167 = getelementptr inbounds nuw %struct.AVFrame, ptr %166, i32 0, i32 1
  %168 = load i32, ptr %21, align 4, !tbaa !32
  %169 = sext i32 %168 to i64
  %170 = getelementptr inbounds [8 x i32], ptr %167, i64 0, i64 %169
  %171 = load i32, ptr %170, align 4, !tbaa !32
  %172 = sdiv i32 %171, 1
  %173 = load ptr, ptr %23, align 8, !tbaa !96
  %174 = sext i32 %172 to i64
  %175 = getelementptr inbounds i8, ptr %173, i64 %174
  store ptr %175, ptr %23, align 8, !tbaa !96
  %176 = load ptr, ptr %11, align 8, !tbaa !36
  %177 = getelementptr inbounds nuw %struct.AVFrame, ptr %176, i32 0, i32 1
  %178 = load i32, ptr %21, align 4, !tbaa !32
  %179 = sext i32 %178 to i64
  %180 = getelementptr inbounds [8 x i32], ptr %177, i64 0, i64 %179
  %181 = load i32, ptr %180, align 4, !tbaa !32
  %182 = sdiv i32 %181, 1
  %183 = load ptr, ptr %24, align 8, !tbaa !96
  %184 = sext i32 %182 to i64
  %185 = getelementptr inbounds i8, ptr %183, i64 %184
  store ptr %185, ptr %24, align 8, !tbaa !96
  br label %186

186:                                              ; preds = %155
  %187 = load i32, ptr %26, align 4, !tbaa !32
  %188 = add nsw i32 %187, 1
  store i32 %188, ptr %26, align 4, !tbaa !32
  br label %107, !llvm.loop !99

189:                                              ; preds = %111
  call void @llvm.lifetime.end.p0(i64 8, ptr %25) #10
  call void @llvm.lifetime.end.p0(i64 8, ptr %24) #10
  call void @llvm.lifetime.end.p0(i64 8, ptr %23) #10
  br label %190

190:                                              ; preds = %189
  %191 = load i32, ptr %21, align 4, !tbaa !32
  %192 = add nsw i32 %191, 1
  store i32 %192, ptr %21, align 4, !tbaa !32
  br label %48, !llvm.loop !100

193:                                              ; preds = %54
  call void @llvm.lifetime.end.p0(i64 64, ptr %20) #10
  call void @llvm.lifetime.end.p0(i64 4, ptr %19) #10
  call void @llvm.lifetime.end.p0(i64 4, ptr %18) #10
  call void @llvm.lifetime.end.p0(i64 8, ptr %17) #10
  ret void
}