; Function Attrs: nounwind uwtable
define internal void @custom8_transition(ptr noundef readonly captures(none) %0, ptr noundef readonly captures(none) %1, ptr noundef readonly captures(none) %2, ptr noundef readonly captures(none) %3, float noundef %4, i32 noundef %5, i32 noundef %6, i32 %7) #1 {
  %9 = alloca [8 x double], align 16
  %10 = getelementptr inbounds nuw i8, ptr %0, i64 72
  %11 = load ptr, ptr %10, align 8, !tbaa !4
  %12 = sub i32 %6, %5
  %13 = getelementptr inbounds nuw i8, ptr %3, i64 104
  %14 = load i32, ptr %13, align 8, !tbaa !85
  call void @llvm.lifetime.start.p0(i64 64, ptr nonnull %9) #12
  %15 = sitofp i32 %14 to double
  %16 = getelementptr inbounds nuw i8, ptr %9, i64 16
  store double %15, ptr %16, align 16, !tbaa !86
  %17 = getelementptr inbounds nuw i8, ptr %3, i64 108
  %18 = load i32, ptr %17, align 4, !tbaa !88
  %19 = sitofp i32 %18 to double
  %20 = getelementptr inbounds nuw i8, ptr %9, i64 24
  store double %19, ptr %20, align 8, !tbaa !86
  %21 = fpext nsz float %4 to double
  %22 = getelementptr inbounds nuw i8, ptr %9, i64 56
  store double %21, ptr %22, align 8, !tbaa !86
  %23 = getelementptr inbounds nuw i8, ptr %11, i64 40
  %24 = load i32, ptr %23, align 8, !tbaa !77
  %25 = icmp sgt i32 %24, 0
  br i1 %25, label %.lr.ph, label %._crit_edge

.lr.ph:                                           ; preds = %8
  %26 = getelementptr inbounds nuw i8, ptr %1, i64 64
  %27 = getelementptr inbounds nuw i8, ptr %2, i64 64
  %28 = getelementptr inbounds nuw i8, ptr %3, i64 64
  %29 = getelementptr inbounds nuw i8, ptr %9, i64 48
  %30 = icmp sgt i32 %12, 0
  %31 = getelementptr inbounds nuw i8, ptr %9, i64 8
  %32 = getelementptr inbounds nuw i8, ptr %9, i64 32
  %33 = getelementptr inbounds nuw i8, ptr %9, i64 40
  %34 = getelementptr inbounds nuw i8, ptr %11, i64 152
  %35 = icmp sgt i32 %14, 0
  %or.cond = select i1 %30, i1 %35, i1 false
  br i1 %or.cond, label %.lr.ph62.us.us.preheader, label %._crit_edge

.lr.ph62.us.us.preheader:                         ; preds = %.lr.ph
  %wide.trip.count = zext nneg i32 %14 to i64
  br label %.lr.ph62.us.us

.lr.ph62.us.us:                                   ; preds = %.lr.ph62.us.us.preheader, %._crit_edge63.split.us.us.us
  %indvars.iv77 = phi i64 [ 0, %.lr.ph62.us.us.preheader ], [ %indvars.iv.next78, %._crit_edge63.split.us.us.us ]
  %36 = getelementptr inbounds nuw [8 x ptr], ptr %1, i64 0, i64 %indvars.iv77
  %37 = load ptr, ptr %36, align 8, !tbaa !89
  %38 = getelementptr inbounds nuw [8 x i32], ptr %26, i64 0, i64 %indvars.iv77
  %39 = load i32, ptr %38, align 4, !tbaa !31
  %40 = mul nsw i32 %39, %5
  %41 = sext i32 %40 to i64
  %42 = getelementptr inbounds i8, ptr %37, i64 %41
  %43 = getelementptr inbounds nuw [8 x ptr], ptr %2, i64 0, i64 %indvars.iv77
  %44 = load ptr, ptr %43, align 8, !tbaa !89
  %45 = getelementptr inbounds nuw [8 x i32], ptr %27, i64 0, i64 %indvars.iv77
  %46 = load i32, ptr %45, align 4, !tbaa !31
  %47 = mul nsw i32 %46, %5
  %48 = sext i32 %47 to i64
  %49 = getelementptr inbounds i8, ptr %44, i64 %48
  %50 = getelementptr inbounds nuw [8 x ptr], ptr %3, i64 0, i64 %indvars.iv77
  %51 = load ptr, ptr %50, align 8, !tbaa !89
  %52 = getelementptr inbounds nuw [8 x i32], ptr %28, i64 0, i64 %indvars.iv77
  %53 = load i32, ptr %52, align 4, !tbaa !31
  %54 = mul nsw i32 %53, %5
  %55 = sext i32 %54 to i64
  %56 = getelementptr inbounds i8, ptr %51, i64 %55
  %57 = trunc nuw nsw i64 %indvars.iv77 to i32
  %58 = uitofp nneg i32 %57 to double
  store double %58, ptr %29, align 16, !tbaa !86
  br label %.lr.ph.us.us.us

.lr.ph.us.us.us:                                  ; preds = %._crit_edge.us.us.us, %.lr.ph62.us.us
  %.05160.us.us.us = phi i32 [ 0, %.lr.ph62.us.us ], [ %83, %._crit_edge.us.us.us ]
  %.05259.us.us.us = phi ptr [ %56, %.lr.ph62.us.us ], [ %76, %._crit_edge.us.us.us ]
  %.05358.us.us.us = phi ptr [ %49, %.lr.ph62.us.us ], [ %82, %._crit_edge.us.us.us ]
  %.05457.us.us.us = phi ptr [ %42, %.lr.ph62.us.us ], [ %79, %._crit_edge.us.us.us ]
  %59 = add nsw i32 %.05160.us.us.us, %5
  %60 = sitofp i32 %59 to double
  store double %60, ptr %31, align 8, !tbaa !86
  br label %61

61:                                               ; preds = %61, %.lr.ph.us.us.us
  %indvars.iv = phi i64 [ %indvars.iv.next, %61 ], [ 0, %.lr.ph.us.us.us ]
  %62 = trunc nuw nsw i64 %indvars.iv to i32
  %63 = uitofp nneg i32 %62 to double
  store double %63, ptr %9, align 16, !tbaa !86
  %64 = getelementptr inbounds nuw i8, ptr %.05457.us.us.us, i64 %indvars.iv
  %65 = load i8, ptr %64, align 1, !tbaa !90
  %66 = uitofp i8 %65 to double
  store double %66, ptr %32, align 16, !tbaa !86
  %67 = getelementptr inbounds nuw i8, ptr %.05358.us.us.us, i64 %indvars.iv
  %68 = load i8, ptr %67, align 1, !tbaa !90
  %69 = uitofp i8 %68 to double
  store double %69, ptr %33, align 8, !tbaa !86
  %70 = load ptr, ptr %34, align 8, !tbaa !20
  %71 = call nsz double @av_expr_eval(ptr noundef %70, ptr noundef nonnull %9, ptr noundef %11) #12
  %72 = fptoui double %71 to i8
  %73 = getelementptr inbounds nuw i8, ptr %.05259.us.us.us, i64 %indvars.iv
  store i8 %72, ptr %73, align 1, !tbaa !90
  %indvars.iv.next = add nuw nsw i64 %indvars.iv, 1
  %exitcond.not = icmp eq i64 %indvars.iv.next, %wide.trip.count
  br i1 %exitcond.not, label %._crit_edge.us.us.us, label %61, !llvm.loop !91

._crit_edge.us.us.us:                             ; preds = %61
  %74 = load i32, ptr %52, align 4, !tbaa !31
  %75 = sext i32 %74 to i64
  %76 = getelementptr inbounds i8, ptr %.05259.us.us.us, i64 %75
  %77 = load i32, ptr %38, align 4, !tbaa !31
  %78 = sext i32 %77 to i64
  %79 = getelementptr inbounds i8, ptr %.05457.us.us.us, i64 %78
  %80 = load i32, ptr %45, align 4, !tbaa !31
  %81 = sext i32 %80 to i64
  %82 = getelementptr inbounds i8, ptr %.05358.us.us.us, i64 %81
  %83 = add nuw nsw i32 %.05160.us.us.us, 1
  %exitcond76.not = icmp eq i32 %83, %12
  br i1 %exitcond76.not, label %._crit_edge63.split.us.us.us, label %.lr.ph.us.us.us, !llvm.loop !92

._crit_edge63.split.us.us.us:                     ; preds = %._crit_edge.us.us.us
  %indvars.iv.next78 = add nuw nsw i64 %indvars.iv77, 1
  %84 = load i32, ptr %23, align 8, !tbaa !77
  %85 = sext i32 %84 to i64
  %86 = icmp slt i64 %indvars.iv.next78, %85
  br i1 %86, label %.lr.ph62.us.us, label %._crit_edge, !llvm.loop !93

._crit_edge:                                      ; preds = %._crit_edge63.split.us.us.us, %.lr.ph, %8
  call void @llvm.lifetime.end.p0(i64 64, ptr nonnull %9) #12
  ret void
}